(dp0
S'stds'
p1
(lp2
cnumpy.core.multiarray
scalar
p3
(cnumpy
dtype
p4
(S'f8'
p5
I0
I1
tp6
Rp7
(I3
S'<'
p8
NNNI-1
I-1
I0
tp9
bS'%\xd2\x9f\xc8\x8f\xa6\xae?'
p10
tp11
Rp12
asS'means'
p13
(lp14
g3
(g7
S'\xf7\xea\xc2\x07\x1cD\xf1?'
p15
tp16
Rp17
as.